(ipuzzle.reconstruct
Solution
p0
(dp1
S'order_list'
p2
(lp3
(lp4
I0
aI0
aa(lp5
I0
aI1
aa(lp6
I1
aI0
aa(lp7
I1
aI1
aasS'global_diff'
p8
F63441.55697963285
sb.(ipuzzle.reconstruct
Solution
p0
(dp1
S'order_list'
p2
(lp3
(lp4
I0
aI0
aa(lp5
I0
aI1
aa(lp6
I1
aI0
aa(lp7
I1
aI1
aasS'global_diff'
p8
F65889.63120012156
sb.(ipuzzle.reconstruct
Solution
p0
(dp1
S'order_list'
p2
(lp3
(lp4
I0
aI0
aa(lp5
I0
aI1
aa(lp6
I1
aI0
aa(lp7
I1
aI1
aasS'global_diff'
p8
F66197.76782347608
sb.(ipuzzle.reconstruct
Solution
p0
(dp1
S'order_list'
p2
(lp3
(lp4
I0
aI0
aa(lp5
I0
aI1
aa(lp6
I1
aI0
aa(lp7
I1
aI1
aasS'global_diff'
p8
F70967.31773851962
sb.(ipuzzle.reconstruct
Solution
p0
(dp1
S'order_list'
p2
(lp3
(lp4
I0
aI0
aa(lp5
I0
aI1
aa(lp6
I1
aI0
aa(lp7
I1
aI1
aasS'global_diff'
p8
F71795.23802453752
sb.(ipuzzle.reconstruct
Solution
p0
(dp1
S'order_list'
p2
(lp3
(lp4
I0
aI0
aa(lp5
I0
aI1
aa(lp6
I1
aI0
aa(lp7
I1
aI1
aasS'global_diff'
p8
F72320.7358486248
sb.(ipuzzle.reconstruct
Solution
p0
(dp1
S'order_list'
p2
(lp3
(lp4
I0
aI0
aa(lp5
I0
aI1
aa(lp6
I1
aI0
aa(lp7
I1
aI1
aasS'global_diff'
p8
F72973.03257368438
sb.(ipuzzle.reconstruct
Solution
p0
(dp1
S'order_list'
p2
(lp3
(lp4
I0
aI0
aa(lp5
I0
aI1
aa(lp6
I1
aI0
aa(lp7
I1
aI1
aasS'global_diff'
p8
F73752.45543709036
sb.(ipuzzle.reconstruct
Solution
p0
(dp1
S'order_list'
p2
(lp3
(lp4
I0
aI0
aa(lp5
I0
aI1
aa(lp6
I1
aI0
aa(lp7
I1
aI1
aasS'global_diff'
p8
F74019.36376033699
sb.(ipuzzle.reconstruct
Solution
p0
(dp1
S'order_list'
p2
(lp3
(lp4
I0
aI0
aa(lp5
I0
aI1
aa(lp6
I1
aI0
aa(lp7
I1
aI1
aasS'global_diff'
p8
F76427.25989297786
sb.(ipuzzle.reconstruct
Solution
p0
(dp1
S'order_list'
p2
(lp3
(lp4
I0
aI0
aa(lp5
I0
aI1
aa(lp6
I1
aI0
aa(lp7
I1
aI1
aasS'global_diff'
p8
F79773.75047359367
sb.(ipuzzle.reconstruct
Solution
p0
(dp1
S'order_list'
p2
(lp3
(lp4
I0
aI0
aa(lp5
I0
aI1
aa(lp6
I1
aI0
aa(lp7
I1
aI1
aasS'global_diff'
p8
F80686.37282878974
sb.(ipuzzle.reconstruct
Solution
p0
(dp1
S'order_list'
p2
(lp3
(lp4
I0
aI0
aa(lp5
I0
aI1
aa(lp6
I1
aI0
aa(lp7
I1
aI1
aasS'global_diff'
p8
F81169.26949398132
sb.(ipuzzle.reconstruct
Solution
p0
(dp1
S'order_list'
p2
(lp3
(lp4
I0
aI0
aa(lp5
I0
aI1
aa(lp6
I1
aI0
aa(lp7
I1
aI1
aasS'global_diff'
p8
F82352.08769666986
sb.(ipuzzle.reconstruct
Solution
p0
(dp1
S'order_list'
p2
(lp3
(lp4
I0
aI0
aa(lp5
I0
aI1
aa(lp6
I1
aI0
aa(lp7
I1
aI1
aasS'global_diff'
p8
F82631.63430608233
sb.(ipuzzle.reconstruct
Solution
p0
(dp1
S'order_list'
p2
(lp3
(lp4
I0
aI0
aa(lp5
I0
aI1
aa(lp6
I1
aI0
aa(lp7
I1
aI1
aasS'global_diff'
p8
F82692.08766395449
sb.(ipuzzle.reconstruct
Solution
p0
(dp1
S'order_list'
p2
(lp3
(lp4
I0
aI0
aa(lp5
I0
aI1
aa(lp6
I1
aI0
aa(lp7
I1
aI1
aasS'global_diff'
p8
F84115.31541877496
sb.(ipuzzle.reconstruct
Solution
p0
(dp1
S'order_list'
p2
(lp3
(lp4
I0
aI0
aa(lp5
I0
aI1
aa(lp6
I1
aI0
aa(lp7
I1
aI1
aasS'global_diff'
p8
F85151.08180170113
sb.(ipuzzle.reconstruct
Solution
p0
(dp1
S'order_list'
p2
(lp3
(lp4
I0
aI0
aa(lp5
I0
aI1
aa(lp6
I1
aI0
aa(lp7
I1
aI1
aasS'global_diff'
p8
F85679.35729800964
sb.(ipuzzle.reconstruct
Solution
p0
(dp1
S'order_list'
p2
(lp3
(lp4
I0
aI0
aa(lp5
I0
aI1
aa(lp6
I1
aI0
aa(lp7
I1
aI1
aasS'global_diff'
p8
F86760.32950081365
sb.(ipuzzle.reconstruct
Solution
p0
(dp1
S'order_list'
p2
(lp3
(lp4
I0
aI0
aa(lp5
I0
aI1
aa(lp6
I1
aI0
aa(lp7
I1
aI1
aasS'global_diff'
p8
F90946.69630270763
sb.(ipuzzle.reconstruct
Solution
p0
(dp1
S'order_list'
p2
(lp3
(lp4
I0
aI0
aa(lp5
I0
aI1
aa(lp6
I1
aI0
aa(lp7
I1
aI1
aasS'global_diff'
p8
F92129.51450539616
sb.(ipuzzle.reconstruct
Solution
p0
(dp1
S'order_list'
p2
(lp3
(lp4
I0
aI0
aa(lp5
I0
aI1
aa(lp6
I1
aI0
aa(lp7
I1
aI1
aasS'global_diff'
p8
F95380.57387120291
sb.(ipuzzle.reconstruct
Solution
p0
(dp1
S'order_list'
p2
(lp3
(lp4
I0
aI0
aa(lp5
I0
aI1
aa(lp6
I1
aI0
aa(lp7
I1
aI1
aasS'global_diff'
p8
F96856.28115925164
sb.