(ipuzzle.reconstruct
Solution
p0
(dp1
S'order_list'
p2
(lp3
(lp4
I0
aI0
aa(lp5
I0
aI1
aa(lp6
I1
aI0
aa(lp7
I1
aI1
aasS'global_diff'
p8
cnumpy.core.multiarray
scalar
p9
(cnumpy
dtype
p10
(S'f8'
p11
I0
I1
tp12
Rp13
(I3
S'<'
p14
NNNI-1
I-1
I0
tp15
bS'\x00\x00\x00\x00\x00\x00\x00\x00'
p16
tp17
Rp18
sb.(ipuzzle.reconstruct
Solution
p0
(dp1
S'order_list'
p2
(lp3
(lp4
I0
aI0
aa(lp5
I0
aI1
aa(lp6
I1
aI1
aa(lp7
I1
aI0
aasS'global_diff'
p8
cnumpy.core.multiarray
scalar
p9
(cnumpy
dtype
p10
(S'f8'
p11
I0
I1
tp12
Rp13
(I3
S'<'
p14
NNNI-1
I-1
I0
tp15
bS'\x00\x00\x00\x00\x00\x00\x00\x00'
p16
tp17
Rp18
sb.(ipuzzle.reconstruct
Solution
p0
(dp1
S'order_list'
p2
(lp3
(lp4
I0
aI0
aa(lp5
I1
aI0
aa(lp6
I0
aI1
aa(lp7
I1
aI1
aasS'global_diff'
p8
cnumpy.core.multiarray
scalar
p9
(cnumpy
dtype
p10
(S'f8'
p11
I0
I1
tp12
Rp13
(I3
S'<'
p14
NNNI-1
I-1
I0
tp15
bS'\x00\x00\x00\x00\x00\x00\x00\x00'
p16
tp17
Rp18
sb.(ipuzzle.reconstruct
Solution
p0
(dp1
S'order_list'
p2
(lp3
(lp4
I0
aI0
aa(lp5
I1
aI0
aa(lp6
I1
aI1
aa(lp7
I0
aI1
aasS'global_diff'
p8
cnumpy.core.multiarray
scalar
p9
(cnumpy
dtype
p10
(S'f8'
p11
I0
I1
tp12
Rp13
(I3
S'<'
p14
NNNI-1
I-1
I0
tp15
bS'\x00\x00\x00\x00\x00\x00\x00\x00'
p16
tp17
Rp18
sb.(ipuzzle.reconstruct
Solution
p0
(dp1
S'order_list'
p2
(lp3
(lp4
I0
aI0
aa(lp5
I1
aI1
aa(lp6
I0
aI1
aa(lp7
I1
aI0
aasS'global_diff'
p8
cnumpy.core.multiarray
scalar
p9
(cnumpy
dtype
p10
(S'f8'
p11
I0
I1
tp12
Rp13
(I3
S'<'
p14
NNNI-1
I-1
I0
tp15
bS'\x00\x00\x00\x00\x00\x00\x00\x00'
p16
tp17
Rp18
sb.(ipuzzle.reconstruct
Solution
p0
(dp1
S'order_list'
p2
(lp3
(lp4
I0
aI0
aa(lp5
I1
aI1
aa(lp6
I1
aI0
aa(lp7
I0
aI1
aasS'global_diff'
p8
cnumpy.core.multiarray
scalar
p9
(cnumpy
dtype
p10
(S'f8'
p11
I0
I1
tp12
Rp13
(I3
S'<'
p14
NNNI-1
I-1
I0
tp15
bS'\x00\x00\x00\x00\x00\x00\x00\x00'
p16
tp17
Rp18
sb.(ipuzzle.reconstruct
Solution
p0
(dp1
S'order_list'
p2
(lp3
(lp4
I0
aI1
aa(lp5
I0
aI0
aa(lp6
I1
aI0
aa(lp7
I1
aI1
aasS'global_diff'
p8
cnumpy.core.multiarray
scalar
p9
(cnumpy
dtype
p10
(S'f8'
p11
I0
I1
tp12
Rp13
(I3
S'<'
p14
NNNI-1
I-1
I0
tp15
bS'\x00\x00\x00\x00\x00\x00\x00\x00'
p16
tp17
Rp18
sb.(ipuzzle.reconstruct
Solution
p0
(dp1
S'order_list'
p2
(lp3
(lp4
I0
aI1
aa(lp5
I0
aI0
aa(lp6
I1
aI1
aa(lp7
I1
aI0
aasS'global_diff'
p8
cnumpy.core.multiarray
scalar
p9
(cnumpy
dtype
p10
(S'f8'
p11
I0
I1
tp12
Rp13
(I3
S'<'
p14
NNNI-1
I-1
I0
tp15
bS'\x00\x00\x00\x00\x00\x00\x00\x00'
p16
tp17
Rp18
sb.(ipuzzle.reconstruct
Solution
p0
(dp1
S'order_list'
p2
(lp3
(lp4
I0
aI1
aa(lp5
I1
aI0
aa(lp6
I0
aI0
aa(lp7
I1
aI1
aasS'global_diff'
p8
cnumpy.core.multiarray
scalar
p9
(cnumpy
dtype
p10
(S'f8'
p11
I0
I1
tp12
Rp13
(I3
S'<'
p14
NNNI-1
I-1
I0
tp15
bS'\x00\x00\x00\x00\x00\x00\x00\x00'
p16
tp17
Rp18
sb.(ipuzzle.reconstruct
Solution
p0
(dp1
S'order_list'
p2
(lp3
(lp4
I0
aI1
aa(lp5
I1
aI0
aa(lp6
I1
aI1
aa(lp7
I0
aI0
aasS'global_diff'
p8
cnumpy.core.multiarray
scalar
p9
(cnumpy
dtype
p10
(S'f8'
p11
I0
I1
tp12
Rp13
(I3
S'<'
p14
NNNI-1
I-1
I0
tp15
bS'\x00\x00\x00\x00\x00\x00\x00\x00'
p16
tp17
Rp18
sb.(ipuzzle.reconstruct
Solution
p0
(dp1
S'order_list'
p2
(lp3
(lp4
I0
aI1
aa(lp5
I1
aI1
aa(lp6
I0
aI0
aa(lp7
I1
aI0
aasS'global_diff'
p8
cnumpy.core.multiarray
scalar
p9
(cnumpy
dtype
p10
(S'f8'
p11
I0
I1
tp12
Rp13
(I3
S'<'
p14
NNNI-1
I-1
I0
tp15
bS'\x00\x00\x00\x00\x00\x00\x00\x00'
p16
tp17
Rp18
sb.(ipuzzle.reconstruct
Solution
p0
(dp1
S'order_list'
p2
(lp3
(lp4
I0
aI1
aa(lp5
I1
aI1
aa(lp6
I1
aI0
aa(lp7
I0
aI0
aasS'global_diff'
p8
cnumpy.core.multiarray
scalar
p9
(cnumpy
dtype
p10
(S'f8'
p11
I0
I1
tp12
Rp13
(I3
S'<'
p14
NNNI-1
I-1
I0
tp15
bS'\x00\x00\x00\x00\x00\x00\x00\x00'
p16
tp17
Rp18
sb.(ipuzzle.reconstruct
Solution
p0
(dp1
S'order_list'
p2
(lp3
(lp4
I1
aI0
aa(lp5
I0
aI0
aa(lp6
I0
aI1
aa(lp7
I1
aI1
aasS'global_diff'
p8
cnumpy.core.multiarray
scalar
p9
(cnumpy
dtype
p10
(S'f8'
p11
I0
I1
tp12
Rp13
(I3
S'<'
p14
NNNI-1
I-1
I0
tp15
bS'\x00\x00\x00\x00\x00\x00\x00\x00'
p16
tp17
Rp18
sb.(ipuzzle.reconstruct
Solution
p0
(dp1
S'order_list'
p2
(lp3
(lp4
I1
aI0
aa(lp5
I0
aI0
aa(lp6
I1
aI1
aa(lp7
I0
aI1
aasS'global_diff'
p8
cnumpy.core.multiarray
scalar
p9
(cnumpy
dtype
p10
(S'f8'
p11
I0
I1
tp12
Rp13
(I3
S'<'
p14
NNNI-1
I-1
I0
tp15
bS'\x00\x00\x00\x00\x00\x00\x00\x00'
p16
tp17
Rp18
sb.(ipuzzle.reconstruct
Solution
p0
(dp1
S'order_list'
p2
(lp3
(lp4
I1
aI0
aa(lp5
I0
aI1
aa(lp6
I0
aI0
aa(lp7
I1
aI1
aasS'global_diff'
p8
cnumpy.core.multiarray
scalar
p9
(cnumpy
dtype
p10
(S'f8'
p11
I0
I1
tp12
Rp13
(I3
S'<'
p14
NNNI-1
I-1
I0
tp15
bS'\x00\x00\x00\x00\x00\x00\x00\x00'
p16
tp17
Rp18
sb.(ipuzzle.reconstruct
Solution
p0
(dp1
S'order_list'
p2
(lp3
(lp4
I1
aI0
aa(lp5
I0
aI1
aa(lp6
I1
aI1
aa(lp7
I0
aI0
aasS'global_diff'
p8
cnumpy.core.multiarray
scalar
p9
(cnumpy
dtype
p10
(S'f8'
p11
I0
I1
tp12
Rp13
(I3
S'<'
p14
NNNI-1
I-1
I0
tp15
bS'\x00\x00\x00\x00\x00\x00\x00\x00'
p16
tp17
Rp18
sb.(ipuzzle.reconstruct
Solution
p0
(dp1
S'order_list'
p2
(lp3
(lp4
I1
aI0
aa(lp5
I1
aI1
aa(lp6
I0
aI0
aa(lp7
I0
aI1
aasS'global_diff'
p8
cnumpy.core.multiarray
scalar
p9
(cnumpy
dtype
p10
(S'f8'
p11
I0
I1
tp12
Rp13
(I3
S'<'
p14
NNNI-1
I-1
I0
tp15
bS'\x00\x00\x00\x00\x00\x00\x00\x00'
p16
tp17
Rp18
sb.(ipuzzle.reconstruct
Solution
p0
(dp1
S'order_list'
p2
(lp3
(lp4
I1
aI0
aa(lp5
I1
aI1
aa(lp6
I0
aI1
aa(lp7
I0
aI0
aasS'global_diff'
p8
cnumpy.core.multiarray
scalar
p9
(cnumpy
dtype
p10
(S'f8'
p11
I0
I1
tp12
Rp13
(I3
S'<'
p14
NNNI-1
I-1
I0
tp15
bS'\x00\x00\x00\x00\x00\x00\x00\x00'
p16
tp17
Rp18
sb.(ipuzzle.reconstruct
Solution
p0
(dp1
S'order_list'
p2
(lp3
(lp4
I1
aI1
aa(lp5
I0
aI0
aa(lp6
I0
aI1
aa(lp7
I1
aI0
aasS'global_diff'
p8
cnumpy.core.multiarray
scalar
p9
(cnumpy
dtype
p10
(S'f8'
p11
I0
I1
tp12
Rp13
(I3
S'<'
p14
NNNI-1
I-1
I0
tp15
bS'\x00\x00\x00\x00\x00\x00\x00\x00'
p16
tp17
Rp18
sb.(ipuzzle.reconstruct
Solution
p0
(dp1
S'order_list'
p2
(lp3
(lp4
I1
aI1
aa(lp5
I0
aI0
aa(lp6
I1
aI0
aa(lp7
I0
aI1
aasS'global_diff'
p8
cnumpy.core.multiarray
scalar
p9
(cnumpy
dtype
p10
(S'f8'
p11
I0
I1
tp12
Rp13
(I3
S'<'
p14
NNNI-1
I-1
I0
tp15
bS'\x00\x00\x00\x00\x00\x00\x00\x00'
p16
tp17
Rp18
sb.(ipuzzle.reconstruct
Solution
p0
(dp1
S'order_list'
p2
(lp3
(lp4
I1
aI1
aa(lp5
I0
aI1
aa(lp6
I0
aI0
aa(lp7
I1
aI0
aasS'global_diff'
p8
cnumpy.core.multiarray
scalar
p9
(cnumpy
dtype
p10
(S'f8'
p11
I0
I1
tp12
Rp13
(I3
S'<'
p14
NNNI-1
I-1
I0
tp15
bS'\x00\x00\x00\x00\x00\x00\x00\x00'
p16
tp17
Rp18
sb.(ipuzzle.reconstruct
Solution
p0
(dp1
S'order_list'
p2
(lp3
(lp4
I1
aI1
aa(lp5
I0
aI1
aa(lp6
I1
aI0
aa(lp7
I0
aI0
aasS'global_diff'
p8
cnumpy.core.multiarray
scalar
p9
(cnumpy
dtype
p10
(S'f8'
p11
I0
I1
tp12
Rp13
(I3
S'<'
p14
NNNI-1
I-1
I0
tp15
bS'\x00\x00\x00\x00\x00\x00\x00\x00'
p16
tp17
Rp18
sb.(ipuzzle.reconstruct
Solution
p0
(dp1
S'order_list'
p2
(lp3
(lp4
I1
aI1
aa(lp5
I1
aI0
aa(lp6
I0
aI0
aa(lp7
I0
aI1
aasS'global_diff'
p8
cnumpy.core.multiarray
scalar
p9
(cnumpy
dtype
p10
(S'f8'
p11
I0
I1
tp12
Rp13
(I3
S'<'
p14
NNNI-1
I-1
I0
tp15
bS'\x00\x00\x00\x00\x00\x00\x00\x00'
p16
tp17
Rp18
sb.(ipuzzle.reconstruct
Solution
p0
(dp1
S'order_list'
p2
(lp3
(lp4
I1
aI1
aa(lp5
I1
aI0
aa(lp6
I0
aI1
aa(lp7
I0
aI0
aasS'global_diff'
p8
cnumpy.core.multiarray
scalar
p9
(cnumpy
dtype
p10
(S'f8'
p11
I0
I1
tp12
Rp13
(I3
S'<'
p14
NNNI-1
I-1
I0
tp15
bS'\x00\x00\x00\x00\x00\x00\x00\x00'
p16
tp17
Rp18
sb.