(ipuzzle.reconstruct
Solution
p0
(dp1
S'order_list'
p2
(lp3
(lp4
I1
aI0
aa(lp5
I0
aI0
aa(lp6
I0
aI1
aa(lp7
I1
aI1
aasS'global_diff'
p8
F218479.97683884576
sb.(ipuzzle.reconstruct
Solution
p0
(dp1
S'order_list'
p2
(lp3
(lp4
I0
aI0
aa(lp5
I1
aI1
aa(lp6
I1
aI0
aa(lp7
I0
aI1
aasS'global_diff'
p8
F223194.58546594373
sb.(ipuzzle.reconstruct
Solution
p0
(dp1
S'order_list'
p2
(lp3
(lp4
I0
aI0
aa(lp5
I1
aI0
aa(lp6
I1
aI1
aa(lp7
I0
aI1
aasS'global_diff'
p8
F229209.80452693836
sb.(ipuzzle.reconstruct
Solution
p0
(dp1
S'order_list'
p2
(lp3
(lp4
I1
aI0
aa(lp5
I0
aI0
aa(lp6
I1
aI1
aa(lp7
I0
aI1
aasS'global_diff'
p8
F230736.10791083315
sb.(ipuzzle.reconstruct
Solution
p0
(dp1
S'order_list'
p2
(lp3
(lp4
I1
aI1
aa(lp5
I0
aI0
aa(lp6
I1
aI0
aa(lp7
I0
aI1
aasS'global_diff'
p8
F234179.17843832157
sb.(ipuzzle.reconstruct
Solution
p0
(dp1
S'order_list'
p2
(lp3
(lp4
I1
aI0
aa(lp5
I0
aI1
aa(lp6
I0
aI0
aa(lp7
I1
aI1
aasS'global_diff'
p8
F237844.98448540247
sb.(ipuzzle.reconstruct
Solution
p0
(dp1
S'order_list'
p2
(lp3
(lp4
I1
aI1
aa(lp5
I0
aI1
aa(lp6
I1
aI0
aa(lp7
I0
aI0
aasS'global_diff'
p8
F249505.6382943717
sb.(ipuzzle.reconstruct
Solution
p0
(dp1
S'order_list'
p2
(lp3
(lp4
I1
aI1
aa(lp5
I1
aI0
aa(lp6
I0
aI1
aa(lp7
I0
aI0
aasS'global_diff'
p8
F250245.96805790925
sb.(ipuzzle.reconstruct
Solution
p0
(dp1
S'order_list'
p2
(lp3
(lp4
I1
aI0
aa(lp5
I0
aI1
aa(lp6
I1
aI1
aa(lp7
I0
aI0
aasS'global_diff'
p8
F252022.54785127775
sb.(ipuzzle.reconstruct
Solution
p0
(dp1
S'order_list'
p2
(lp3
(lp4
I1
aI0
aa(lp5
I1
aI1
aa(lp6
I0
aI0
aa(lp7
I0
aI1
aasS'global_diff'
p8
F252645.76676363882
sb.(ipuzzle.reconstruct
Solution
p0
(dp1
S'order_list'
p2
(lp3
(lp4
I1
aI1
aa(lp5
I1
aI0
aa(lp6
I0
aI0
aa(lp7
I0
aI1
aasS'global_diff'
p8
F253393.95714645856
sb.(ipuzzle.reconstruct
Solution
p0
(dp1
S'order_list'
p2
(lp3
(lp4
I0
aI1
aa(lp5
I1
aI0
aa(lp6
I1
aI1
aa(lp7
I0
aI0
aasS'global_diff'
p8
F254022.4709220218
sb.(ipuzzle.reconstruct
Solution
p0
(dp1
S'order_list'
p2
(lp3
(lp4
I0
aI0
aa(lp5
I1
aI0
aa(lp6
I0
aI1
aa(lp7
I1
aI1
aasS'global_diff'
p8
F256427.54737679887
sb.(ipuzzle.reconstruct
Solution
p0
(dp1
S'order_list'
p2
(lp3
(lp4
I0
aI1
aa(lp5
I1
aI0
aa(lp6
I0
aI0
aa(lp7
I1
aI1
aasS'global_diff'
p8
F259631.7578790821
sb.(ipuzzle.reconstruct
Solution
p0
(dp1
S'order_list'
p2
(lp3
(lp4
I0
aI1
aa(lp5
I0
aI0
aa(lp6
I1
aI1
aa(lp7
I1
aI0
aasS'global_diff'
p8
F261980.43361998722
sb.(ipuzzle.reconstruct
Solution
p0
(dp1
S'order_list'
p2
(lp3
(lp4
I0
aI1
aa(lp5
I0
aI0
aa(lp6
I1
aI0
aa(lp7
I1
aI1
aasS'global_diff'
p8
F263369.9676042906
sb.(ipuzzle.reconstruct
Solution
p0
(dp1
S'order_list'
p2
(lp3
(lp4
I0
aI0
aa(lp5
I0
aI1
aa(lp6
I1
aI0
aa(lp7
I1
aI1
aasS'global_diff'
p8
F264380.2323257168
sb.(ipuzzle.reconstruct
Solution
p0
(dp1
S'order_list'
p2
(lp3
(lp4
I1
aI0
aa(lp5
I1
aI1
aa(lp6
I0
aI1
aa(lp7
I0
aI0
aasS'global_diff'
p8
F265779.2072946224
sb.(ipuzzle.reconstruct
Solution
p0
(dp1
S'order_list'
p2
(lp3
(lp4
I1
aI1
aa(lp5
I0
aI0
aa(lp6
I0
aI1
aa(lp7
I1
aI0
aasS'global_diff'
p8
F268672.8699414806
sb.(ipuzzle.reconstruct
Solution
p0
(dp1
S'order_list'
p2
(lp3
(lp4
I1
aI1
aa(lp5
I0
aI1
aa(lp6
I0
aI0
aa(lp7
I1
aI0
aasS'global_diff'
p8
F271459.5053365835
sb.(ipuzzle.reconstruct
Solution
p0
(dp1
S'order_list'
p2
(lp3
(lp4
I0
aI1
aa(lp5
I1
aI1
aa(lp6
I0
aI0
aa(lp7
I1
aI0
aasS'global_diff'
p8
F275197.0777603374
sb.(ipuzzle.reconstruct
Solution
p0
(dp1
S'order_list'
p2
(lp3
(lp4
I0
aI0
aa(lp5
I0
aI1
aa(lp6
I1
aI1
aa(lp7
I1
aI0
aasS'global_diff'
p8
F275755.2177524544
sb.(ipuzzle.reconstruct
Solution
p0
(dp1
S'order_list'
p2
(lp3
(lp4
I0
aI0
aa(lp5
I1
aI1
aa(lp6
I0
aI1
aa(lp7
I1
aI0
aasS'global_diff'
p8
F277475.12729203835
sb.(ipuzzle.reconstruct
Solution
p0
(dp1
S'order_list'
p2
(lp3
(lp4
I0
aI1
aa(lp5
I1
aI1
aa(lp6
I1
aI0
aa(lp7
I0
aI0
aasS'global_diff'
p8
F282189.3330246761
sb.