(icore.Reconstruct
Solution
p0
(dp1
S'order_list'
p2
(lp3
(lp4
I0
aI0
aa(lp5
I0
aI1
aa(lp6
I1
aI1
aa(lp7
I1
aI0
aasS'global_diff'
p8
cnumpy.core.multiarray
scalar
p9
(cnumpy
dtype
p10
(S'f8'
p11
I0
I1
tp12
Rp13
(I3
S'<'
p14
NNNI-1
I-1
I0
tp15
bS'c\x17\xfa\xf8\x17\xda\xf8@'
p16
tp17
Rp18
sb.(icore.Reconstruct
Solution
p0
(dp1
S'order_list'
p2
(lp3
(lp4
I1
aI0
aa(lp5
I1
aI1
aa(lp6
I0
aI1
aa(lp7
I0
aI0
aasS'global_diff'
p8
cnumpy.core.multiarray
scalar
p9
(cnumpy
dtype
p10
(S'f8'
p11
I0
I1
tp12
Rp13
(I3
S'<'
p14
NNNI-1
I-1
I0
tp15
bS'M\xf1\x87\xf3\xe6\xd9\x05A'
p16
tp17
Rp18
sb.(icore.Reconstruct
Solution
p0
(dp1
S'order_list'
p2
(lp3
(lp4
I0
aI0
aa(lp5
I1
aI1
aa(lp6
I0
aI1
aa(lp7
I1
aI0
aasS'global_diff'
p8
cnumpy.core.multiarray
scalar
p9
(cnumpy
dtype
p10
(S'f8'
p11
I0
I1
tp12
Rp13
(I3
S'<'
p14
NNNI-1
I-1
I0
tp15
bS'\xbb~x\x0fU\x85\x11A'
p16
tp17
Rp18
sb.(icore.Reconstruct
Solution
p0
(dp1
S'order_list'
p2
(lp3
(lp4
I1
aI0
aa(lp5
I0
aI1
aa(lp6
I1
aI1
aa(lp7
I0
aI0
aasS'global_diff'
p8
cnumpy.core.multiarray
scalar
p9
(cnumpy
dtype
p10
(S'f8'
p11
I0
I1
tp12
Rp13
(I3
S'<'
p14
NNNI-1
I-1
I0
tp15
bS'$\x89\xee*\x8d\x97\x11A'
p16
tp17
Rp18
sb.(icore.Reconstruct
Solution
p0
(dp1
S'order_list'
p2
(lp3
(lp4
I1
aI1
aa(lp5
I1
aI0
aa(lp6
I0
aI1
aa(lp7
I0
aI0
aasS'global_diff'
p8
cnumpy.core.multiarray
scalar
p9
(cnumpy
dtype
p10
(S'f8'
p11
I0
I1
tp12
Rp13
(I3
S'<'
p14
NNNI-1
I-1
I0
tp15
bS'\xc1\xba\x81ok\xd7\x11A'
p16
tp17
Rp18
sb.(icore.Reconstruct
Solution
p0
(dp1
S'order_list'
p2
(lp3
(lp4
I1
aI1
aa(lp5
I0
aI0
aa(lp6
I0
aI1
aa(lp7
I1
aI0
aasS'global_diff'
p8
cnumpy.core.multiarray
scalar
p9
(cnumpy
dtype
p10
(S'f8'
p11
I0
I1
tp12
Rp13
(I3
S'<'
p14
NNNI-1
I-1
I0
tp15
bS'F\xa0\xcd\xb1\x17\x1b\x12A'
p16
tp17
Rp18
sb.(icore.Reconstruct
Solution
p0
(dp1
S'order_list'
p2
(lp3
(lp4
I0
aI1
aa(lp5
I0
aI0
aa(lp6
I1
aI0
aa(lp7
I1
aI1
aasS'global_diff'
p8
cnumpy.core.multiarray
scalar
p9
(cnumpy
dtype
p10
(S'f8'
p11
I0
I1
tp12
Rp13
(I3
S'<'
p14
NNNI-1
I-1
I0
tp15
bS'0#s\xc0\xf0\x1d\x12A'
p16
tp17
Rp18
sb.(icore.Reconstruct
Solution
p0
(dp1
S'order_list'
p2
(lp3
(lp4
I1
aI1
aa(lp5
I0
aI1
aa(lp6
I0
aI0
aa(lp7
I1
aI0
aasS'global_diff'
p8
cnumpy.core.multiarray
scalar
p9
(cnumpy
dtype
p10
(S'f8'
p11
I0
I1
tp12
Rp13
(I3
S'<'
p14
NNNI-1
I-1
I0
tp15
bS'\xb5\xf1\xa7O]\xcc\x12A'
p16
tp17
Rp18
sb.(icore.Reconstruct
Solution
p0
(dp1
S'order_list'
p2
(lp3
(lp4
I0
aI1
aa(lp5
I1
aI0
aa(lp6
I0
aI0
aa(lp7
I1
aI1
aasS'global_diff'
p8
cnumpy.core.multiarray
scalar
p9
(cnumpy
dtype
p10
(S'f8'
p11
I0
I1
tp12
Rp13
(I3
S'<'
p14
NNNI-1
I-1
I0
tp15
bS'\x86\xae\x15\x7f\xf4\xe4\x12A'
p16
tp17
Rp18
sb.(icore.Reconstruct
Solution
p0
(dp1
S'order_list'
p2
(lp3
(lp4
I0
aI1
aa(lp5
I0
aI0
aa(lp6
I1
aI1
aa(lp7
I1
aI0
aasS'global_diff'
p8
cnumpy.core.multiarray
scalar
p9
(cnumpy
dtype
p10
(S'f8'
p11
I0
I1
tp12
Rp13
(I3
S'<'
p14
NNNI-1
I-1
I0
tp15
bS"6'H\xd1o\xeb\x12A"
p16
tp17
Rp18
sb.(icore.Reconstruct
Solution
p0
(dp1
S'order_list'
p2
(lp3
(lp4
I1
aI1
aa(lp5
I0
aI0
aa(lp6
I1
aI0
aa(lp7
I0
aI1
aasS'global_diff'
p8
cnumpy.core.multiarray
scalar
p9
(cnumpy
dtype
p10
(S'f8'
p11
I0
I1
tp12
Rp13
(I3
S'<'
p14
NNNI-1
I-1
I0
tp15
bS'\xee\xb8\x8b\x9a,\xf7\x12A'
p16
tp17
Rp18
sb.(icore.Reconstruct
Solution
p0
(dp1
S'order_list'
p2
(lp3
(lp4
I0
aI1
aa(lp5
I1
aI1
aa(lp6
I1
aI0
aa(lp7
I0
aI0
aasS'global_diff'
p8
cnumpy.core.multiarray
scalar
p9
(cnumpy
dtype
p10
(S'f8'
p11
I0
I1
tp12
Rp13
(I3
S'<'
p14
NNNI-1
I-1
I0
tp15
bS'\xa4\xa1{\xe4q(\x13A'
p16
tp17
Rp18
sb.(icore.Reconstruct
Solution
p0
(dp1
S'order_list'
p2
(lp3
(lp4
I1
aI1
aa(lp5
I0
aI1
aa(lp6
I1
aI0
aa(lp7
I0
aI0
aasS'global_diff'
p8
cnumpy.core.multiarray
scalar
p9
(cnumpy
dtype
p10
(S'f8'
p11
I0
I1
tp12
Rp13
(I3
S'<'
p14
NNNI-1
I-1
I0
tp15
bS'\xdf\xfcJ\xf1\xc3N\x13A'
p16
tp17
Rp18
sb.(icore.Reconstruct
Solution
p0
(dp1
S'order_list'
p2
(lp3
(lp4
I1
aI0
aa(lp5
I1
aI1
aa(lp6
I0
aI0
aa(lp7
I0
aI1
aasS'global_diff'
p8
cnumpy.core.multiarray
scalar
p9
(cnumpy
dtype
p10
(S'f8'
p11
I0
I1
tp12
Rp13
(I3
S'<'
p14
NNNI-1
I-1
I0
tp15
bS'\x7f]+f\x7f\x88\x13A'
p16
tp17
Rp18
sb.(icore.Reconstruct
Solution
p0
(dp1
S'order_list'
p2
(lp3
(lp4
I0
aI1
aa(lp5
I1
aI0
aa(lp6
I1
aI1
aa(lp7
I0
aI0
aasS'global_diff'
p8
cnumpy.core.multiarray
scalar
p9
(cnumpy
dtype
p10
(S'f8'
p11
I0
I1
tp12
Rp13
(I3
S'<'
p14
NNNI-1
I-1
I0
tp15
bS'\xed\xcd\x9f\xeeM,\x14A'
p16
tp17
Rp18
sb.(icore.Reconstruct
Solution
p0
(dp1
S'order_list'
p2
(lp3
(lp4
I0
aI0
aa(lp5
I0
aI1
aa(lp6
I1
aI0
aa(lp7
I1
aI1
aasS'global_diff'
p8
cnumpy.core.multiarray
scalar
p9
(cnumpy
dtype
p10
(S'f8'
p11
I0
I1
tp12
Rp13
(I3
S'<'
p14
NNNI-1
I-1
I0
tp15
bS'\xf4\xc9\xf1\xc7\x83\x9c\x14A'
p16
tp17
Rp18
sb.(icore.Reconstruct
Solution
p0
(dp1
S'order_list'
p2
(lp3
(lp4
I0
aI1
aa(lp5
I1
aI1
aa(lp6
I0
aI0
aa(lp7
I1
aI0
aasS'global_diff'
p8
cnumpy.core.multiarray
scalar
p9
(cnumpy
dtype
p10
(S'f8'
p11
I0
I1
tp12
Rp13
(I3
S'<'
p14
NNNI-1
I-1
I0
tp15
bS'6p:n\xab\xd9\x15A'
p16
tp17
Rp18
sb.(icore.Reconstruct
Solution
p0
(dp1
S'order_list'
p2
(lp3
(lp4
I1
aI0
aa(lp5
I0
aI0
aa(lp6
I1
aI1
aa(lp7
I0
aI1
aasS'global_diff'
p8
cnumpy.core.multiarray
scalar
p9
(cnumpy
dtype
p10
(S'f8'
p11
I0
I1
tp12
Rp13
(I3
S'<'
p14
NNNI-1
I-1
I0
tp15
bS'!\x85m\x9fbd\x16A'
p16
tp17
Rp18
sb.(icore.Reconstruct
Solution
p0
(dp1
S'order_list'
p2
(lp3
(lp4
I1
aI1
aa(lp5
I1
aI0
aa(lp6
I0
aI0
aa(lp7
I0
aI1
aasS'global_diff'
p8
cnumpy.core.multiarray
scalar
p9
(cnumpy
dtype
p10
(S'f8'
p11
I0
I1
tp12
Rp13
(I3
S'<'
p14
NNNI-1
I-1
I0
tp15
bS'\xfe\x95\xf8;^\xd4\x16A'
p16
tp17
Rp18
sb.(icore.Reconstruct
Solution
p0
(dp1
S'order_list'
p2
(lp3
(lp4
I1
aI0
aa(lp5
I0
aI0
aa(lp6
I0
aI1
aa(lp7
I1
aI1
aasS'global_diff'
p8
cnumpy.core.multiarray
scalar
p9
(cnumpy
dtype
p10
(S'f8'
p11
I0
I1
tp12
Rp13
(I3
S'<'
p14
NNNI-1
I-1
I0
tp15
bS'\xbd\x8b\xc0\x05\xf2\x94\x17A'
p16
tp17
Rp18
sb.(icore.Reconstruct
Solution
p0
(dp1
S'order_list'
p2
(lp3
(lp4
I0
aI0
aa(lp5
I1
aI0
aa(lp6
I1
aI1
aa(lp7
I0
aI1
aasS'global_diff'
p8
cnumpy.core.multiarray
scalar
p9
(cnumpy
dtype
p10
(S'f8'
p11
I0
I1
tp12
Rp13
(I3
S'<'
p14
NNNI-1
I-1
I0
tp15
bS'\xac;\x94\x9a\x06\xf1\x17A'
p16
tp17
Rp18
sb.(icore.Reconstruct
Solution
p0
(dp1
S'order_list'
p2
(lp3
(lp4
I1
aI0
aa(lp5
I0
aI1
aa(lp6
I0
aI0
aa(lp7
I1
aI1
aasS'global_diff'
p8
cnumpy.core.multiarray
scalar
p9
(cnumpy
dtype
p10
(S'f8'
p11
I0
I1
tp12
Rp13
(I3
S'<'
p14
NNNI-1
I-1
I0
tp15
bS'\xa4\n5\x95\x948\x18A'
p16
tp17
Rp18
sb.(icore.Reconstruct
Solution
p0
(dp1
S'order_list'
p2
(lp3
(lp4
I0
aI0
aa(lp5
I1
aI0
aa(lp6
I0
aI1
aa(lp7
I1
aI1
aasS'global_diff'
p8
cnumpy.core.multiarray
scalar
p9
(cnumpy
dtype
p10
(S'f8'
p11
I0
I1
tp12
Rp13
(I3
S'<'
p14
NNNI-1
I-1
I0
tp15
bS'x\xf8\\\x1cJ\xef\x18A'
p16
tp17
Rp18
sb.(icore.Reconstruct
Solution
p0
(dp1
S'order_list'
p2
(lp3
(lp4
I0
aI0
aa(lp5
I1
aI1
aa(lp6
I1
aI0
aa(lp7
I0
aI1
aasS'global_diff'
p8
cnumpy.core.multiarray
scalar
p9
(cnumpy
dtype
p10
(S'f8'
p11
I0
I1
tp12
Rp13
(I3
S'<'
p14
NNNI-1
I-1
I0
tp15
bS'K8\x07\xd2\xcaI\x1aA'
p16
tp17
Rp18
sb.