(ipuzzle.reconstruct
Solution
p0
(dp1
S'order_list'
p2
(lp3
(lp4
I1
aI0
aa(lp5
I0
aI0
aa(lp6
I1
aI1
aa(lp7
I0
aI1
aasS'global_diff'
p8
F192054.53695279185
sb.(ipuzzle.reconstruct
Solution
p0
(dp1
S'order_list'
p2
(lp3
(lp4
I1
aI0
aa(lp5
I0
aI1
aa(lp6
I0
aI0
aa(lp7
I1
aI1
aasS'global_diff'
p8
F207024.08889504473
sb.(ipuzzle.reconstruct
Solution
p0
(dp1
S'order_list'
p2
(lp3
(lp4
I0
aI0
aa(lp5
I1
aI0
aa(lp6
I1
aI1
aa(lp7
I0
aI1
aasS'global_diff'
p8
F209810.7425837984
sb.(ipuzzle.reconstruct
Solution
p0
(dp1
S'order_list'
p2
(lp3
(lp4
I0
aI0
aa(lp5
I1
aI0
aa(lp6
I0
aI1
aa(lp7
I1
aI1
aasS'global_diff'
p8
F217012.35800529068
sb.(ipuzzle.reconstruct
Solution
p0
(dp1
S'order_list'
p2
(lp3
(lp4
I1
aI0
aa(lp5
I0
aI0
aa(lp6
I0
aI1
aa(lp7
I1
aI1
aasS'global_diff'
p8
F221274.1886853579
sb.(ipuzzle.reconstruct
Solution
p0
(dp1
S'order_list'
p2
(lp3
(lp4
I1
aI1
aa(lp5
I0
aI0
aa(lp6
I0
aI1
aa(lp7
I1
aI0
aasS'global_diff'
p8
F222534.17978138034
sb.(ipuzzle.reconstruct
Solution
p0
(dp1
S'order_list'
p2
(lp3
(lp4
I1
aI0
aa(lp5
I0
aI1
aa(lp6
I1
aI1
aa(lp7
I0
aI0
aasS'global_diff'
p8
F222548.83529414856
sb.(ipuzzle.reconstruct
Solution
p0
(dp1
S'order_list'
p2
(lp3
(lp4
I0
aI0
aa(lp5
I1
aI1
aa(lp6
I1
aI0
aa(lp7
I0
aI1
aasS'global_diff'
p8
F228558.6871756895
sb.(ipuzzle.reconstruct
Solution
p0
(dp1
S'order_list'
p2
(lp3
(lp4
I0
aI1
aa(lp5
I1
aI1
aa(lp6
I1
aI0
aa(lp7
I0
aI0
aasS'global_diff'
p8
F229027.86388718954
sb.(ipuzzle.reconstruct
Solution
p0
(dp1
S'order_list'
p2
(lp3
(lp4
I1
aI1
aa(lp5
I1
aI0
aa(lp6
I0
aI1
aa(lp7
I0
aI0
aasS'global_diff'
p8
F231065.5509260649
sb.(ipuzzle.reconstruct
Solution
p0
(dp1
S'order_list'
p2
(lp3
(lp4
I0
aI1
aa(lp5
I0
aI0
aa(lp6
I1
aI1
aa(lp7
I1
aI0
aasS'global_diff'
p8
F233535.0262239774
sb.(ipuzzle.reconstruct
Solution
p0
(dp1
S'order_list'
p2
(lp3
(lp4
I1
aI0
aa(lp5
I1
aI1
aa(lp6
I0
aI0
aa(lp7
I0
aI1
aasS'global_diff'
p8
F234874.31147605422
sb.(ipuzzle.reconstruct
Solution
p0
(dp1
S'order_list'
p2
(lp3
(lp4
I0
aI0
aa(lp5
I0
aI1
aa(lp6
I1
aI1
aa(lp7
I1
aI0
aasS'global_diff'
p8
F235995.35166561336
sb.(ipuzzle.reconstruct
Solution
p0
(dp1
S'order_list'
p2
(lp3
(lp4
I0
aI0
aa(lp5
I0
aI1
aa(lp6
I1
aI0
aa(lp7
I1
aI1
aasS'global_diff'
p8
F237343.7867739667
sb.(ipuzzle.reconstruct
Solution
p0
(dp1
S'order_list'
p2
(lp3
(lp4
I1
aI0
aa(lp5
I1
aI1
aa(lp6
I0
aI1
aa(lp7
I0
aI0
aasS'global_diff'
p8
F237887.19544868017
sb.(ipuzzle.reconstruct
Solution
p0
(dp1
S'order_list'
p2
(lp3
(lp4
I0
aI0
aa(lp5
I1
aI1
aa(lp6
I0
aI1
aa(lp7
I1
aI0
aasS'global_diff'
p8
F239559.26223877387
sb.(ipuzzle.reconstruct
Solution
p0
(dp1
S'order_list'
p2
(lp3
(lp4
I1
aI1
aa(lp5
I0
aI1
aa(lp6
I0
aI0
aa(lp7
I1
aI0
aasS'global_diff'
p8
F240491.30998874904
sb.(ipuzzle.reconstruct
Solution
p0
(dp1
S'order_list'
p2
(lp3
(lp4
I0
aI1
aa(lp5
I1
aI0
aa(lp6
I1
aI1
aa(lp7
I0
aI0
aasS'global_diff'
p8
F244068.7780620251
sb.(ipuzzle.reconstruct
Solution
p0
(dp1
S'order_list'
p2
(lp3
(lp4
I0
aI1
aa(lp5
I0
aI0
aa(lp6
I1
aI0
aa(lp7
I1
aI1
aasS'global_diff'
p8
F246971.63996951742
sb.(ipuzzle.reconstruct
Solution
p0
(dp1
S'order_list'
p2
(lp3
(lp4
I1
aI1
aa(lp5
I1
aI0
aa(lp6
I0
aI0
aa(lp7
I0
aI1
aasS'global_diff'
p8
F248863.48375258426
sb.(ipuzzle.reconstruct
Solution
p0
(dp1
S'order_list'
p2
(lp3
(lp4
I1
aI1
aa(lp5
I0
aI0
aa(lp6
I1
aI0
aa(lp7
I0
aI1
aasS'global_diff'
p8
F250801.5077070353
sb.(ipuzzle.reconstruct
Solution
p0
(dp1
S'order_list'
p2
(lp3
(lp4
I1
aI1
aa(lp5
I0
aI1
aa(lp6
I1
aI0
aa(lp7
I0
aI0
aasS'global_diff'
p8
F256108.09983783012
sb.(ipuzzle.reconstruct
Solution
p0
(dp1
S'order_list'
p2
(lp3
(lp4
I0
aI1
aa(lp5
I1
aI0
aa(lp6
I0
aI0
aa(lp7
I1
aI1
aasS'global_diff'
p8
F267811.9346516607
sb.(ipuzzle.reconstruct
Solution
p0
(dp1
S'order_list'
p2
(lp3
(lp4
I0
aI1
aa(lp5
I1
aI1
aa(lp6
I0
aI0
aa(lp7
I1
aI0
aasS'global_diff'
p8
F281065.92089032894
sb.