(ipuzzle.reconstruct
Solution
p0
(dp1
S'order_list'
p2
(lp3
(lp4
I1
aI0
aa(lp5
I1
aI1
aa(lp6
I0
aI1
aa(lp7
I0
aI0
aasS'global_diff'
p8
F15.588457268119896
sb.(ipuzzle.reconstruct
Solution
p0
(dp1
S'order_list'
p2
(lp3
(lp4
I0
aI0
aa(lp5
I1
aI1
aa(lp6
I0
aI1
aa(lp7
I1
aI0
aasS'global_diff'
p8
F646.0549512231912
sb.(ipuzzle.reconstruct
Solution
p0
(dp1
S'order_list'
p2
(lp3
(lp4
I0
aI0
aa(lp5
I1
aI0
aa(lp6
I0
aI1
aa(lp7
I1
aI1
aasS'global_diff'
p8
F16643.27620992933
sb.(ipuzzle.reconstruct
Solution
p0
(dp1
S'order_list'
p2
(lp3
(lp4
I0
aI1
aa(lp5
I1
aI1
aa(lp6
I0
aI0
aa(lp7
I1
aI0
aasS'global_diff'
p8
F22388.488738635308
sb.(ipuzzle.reconstruct
Solution
p0
(dp1
S'order_list'
p2
(lp3
(lp4
I0
aI1
aa(lp5
I1
aI0
aa(lp6
I0
aI0
aa(lp7
I1
aI1
aasS'global_diff'
p8
F38191.72030689373
sb.(ipuzzle.reconstruct
Solution
p0
(dp1
S'order_list'
p2
(lp3
(lp4
I1
aI0
aa(lp5
I1
aI1
aa(lp6
I0
aI0
aa(lp7
I0
aI1
aasS'global_diff'
p8
F44562.20317713212
sb.(ipuzzle.reconstruct
Solution
p0
(dp1
S'order_list'
p2
(lp3
(lp4
I1
aI0
aa(lp5
I0
aI1
aa(lp6
I1
aI1
aa(lp7
I0
aI0
aasS'global_diff'
p8
F48601.345660382765
sb.(ipuzzle.reconstruct
Solution
p0
(dp1
S'order_list'
p2
(lp3
(lp4
I0
aI0
aa(lp5
I0
aI1
aa(lp6
I1
aI1
aa(lp7
I1
aI0
aasS'global_diff'
p8
F49231.81215433784
sb.(ipuzzle.reconstruct
Solution
p0
(dp1
S'order_list'
p2
(lp3
(lp4
I1
aI1
aa(lp5
I1
aI0
aa(lp6
I0
aI1
aa(lp7
I0
aI0
aasS'global_diff'
p8
F49881.33120717613
sb.(ipuzzle.reconstruct
Solution
p0
(dp1
S'order_list'
p2
(lp3
(lp4
I0
aI1
aa(lp5
I1
aI1
aa(lp6
I1
aI0
aa(lp7
I0
aI0
aasS'global_diff'
p8
F56724.66394788073
sb.(ipuzzle.reconstruct
Solution
p0
(dp1
S'order_list'
p2
(lp3
(lp4
I0
aI0
aa(lp5
I1
aI1
aa(lp6
I1
aI0
aa(lp7
I0
aI1
aasS'global_diff'
p8
F60691.060297213466
sb.(ipuzzle.reconstruct
Solution
p0
(dp1
S'order_list'
p2
(lp3
(lp4
I0
aI1
aa(lp5
I1
aI0
aa(lp6
I1
aI1
aa(lp7
I0
aI0
aasS'global_diff'
p8
F62743.54050418256
sb.(ipuzzle.reconstruct
Solution
p0
(dp1
S'order_list'
p2
(lp3
(lp4
I1
aI0
aa(lp5
I0
aI0
aa(lp6
I1
aI1
aa(lp7
I0
aI1
aasS'global_diff'
p8
F64501.57207386505
sb.(ipuzzle.reconstruct
Solution
p0
(dp1
S'order_list'
p2
(lp3
(lp4
I0
aI0
aa(lp5
I1
aI0
aa(lp6
I1
aI1
aa(lp7
I0
aI1
aasS'global_diff'
p8
F66709.9368535153
sb.(ipuzzle.reconstruct
Solution
p0
(dp1
S'order_list'
p2
(lp3
(lp4
I1
aI1
aa(lp5
I0
aI1
aa(lp6
I1
aI0
aa(lp7
I0
aI0
aasS'global_diff'
p8
F70246.78460257102
sb.(ipuzzle.reconstruct
Solution
p0
(dp1
S'order_list'
p2
(lp3
(lp4
I1
aI1
aa(lp5
I0
aI0
aa(lp6
I1
aI0
aa(lp7
I0
aI1
aasS'global_diff'
p8
F86147.0110160533
sb.(ipuzzle.reconstruct
Solution
p0
(dp1
S'order_list'
p2
(lp3
(lp4
I0
aI0
aa(lp5
I0
aI1
aa(lp6
I1
aI0
aa(lp7
I1
aI1
aasS'global_diff'
p8
F92888.15275911141
sb.(ipuzzle.reconstruct
Solution
p0
(dp1
S'order_list'
p2
(lp3
(lp4
I1
aI1
aa(lp5
I1
aI0
aa(lp6
I0
aI0
aa(lp7
I0
aI1
aasS'global_diff'
p8
F94421.01772380985
sb.(ipuzzle.reconstruct
Solution
p0
(dp1
S'order_list'
p2
(lp3
(lp4
I0
aI1
aa(lp5
I0
aI0
aa(lp6
I1
aI1
aa(lp7
I1
aI0
aasS'global_diff'
p8
F98207.28078915543
sb.(ipuzzle.reconstruct
Solution
p0
(dp1
S'order_list'
p2
(lp3
(lp4
I1
aI1
aa(lp5
I0
aI1
aa(lp6
I0
aI0
aa(lp7
I1
aI0
aasS'global_diff'
p8
F105899.3184255688
sb.(ipuzzle.reconstruct
Solution
p0
(dp1
S'order_list'
p2
(lp3
(lp4
I1
aI0
aa(lp5
I0
aI1
aa(lp6
I0
aI0
aa(lp7
I1
aI1
aasS'global_diff'
p8
F108885.37401781752
sb.(ipuzzle.reconstruct
Solution
p0
(dp1
S'order_list'
p2
(lp3
(lp4
I1
aI1
aa(lp5
I0
aI0
aa(lp6
I0
aI1
aa(lp7
I1
aI0
aasS'global_diff'
p8
F110937.85422478663
sb.(ipuzzle.reconstruct
Solution
p0
(dp1
S'order_list'
p2
(lp3
(lp4
I1
aI0
aa(lp5
I0
aI0
aa(lp6
I0
aI1
aa(lp7
I1
aI1
aasS'global_diff'
p8
F115884.59133120337
sb.(ipuzzle.reconstruct
Solution
p0
(dp1
S'order_list'
p2
(lp3
(lp4
I0
aI1
aa(lp5
I0
aI0
aa(lp6
I1
aI0
aa(lp7
I1
aI1
aasS'global_diff'
p8
F143637.24142087958
sb.